; Function Attrs: nounwind sspstrong uwtable
define internal void @sysbus_esp_gpio_demux(ptr noundef %opaque, i32 noundef %irq, i32 noundef %level) #0 {
entry:
  %call.i = tail call ptr @object_dynamic_cast_assert(ptr noundef %opaque, ptr noundef nonnull @.str.108, ptr noundef nonnull @.str.104, i32 noundef 69, ptr noundef nonnull @__func__.SYSBUS_ESP) #10
  %esp = getelementptr inbounds nuw i8, ptr %call.i, i64 1368
  %call.i5 = tail call ptr @object_dynamic_cast_assert(ptr noundef nonnull %esp, ptr noundef nonnull @.str.3, ptr noundef nonnull @.str.104, i32 noundef 20, ptr noundef nonnull @__func__.ESP) #10
  switch i32 %irq, label %sw.epilog [
    i32 0, label %sw.bb
    i32 1, label %sw.bb2
  ]

sw.bb:                                            ; preds = %entry
  %tobool.not.i = icmp eq i32 %level, 0
  br i1 %tobool.not.i, label %sw.epilog, label %if.then.i

if.then.i:                                        ; preds = %sw.bb
  %irq.i.i = getelementptr inbounds nuw i8, ptr %call.i5, i64 192
  %0 = load ptr, ptr %irq.i.i, align 8
  tail call void @qemu_set_irq(ptr noundef %0, i32 noundef 0) #10
  %irq_data.i.i = getelementptr inbounds nuw i8, ptr %call.i5, i64 200
  %1 = load ptr, ptr %irq_data.i.i, align 8
  tail call void @qemu_set_irq(ptr noundef %1, i32 noundef 0) #10
  %rregs.i.i.i = getelementptr inbounds nuw i8, ptr %call.i5, i64 160
  %tchi_written.i.i.i = getelementptr inbounds nuw i8, ptr %call.i5, i64 209
  store i8 0, ptr %tchi_written.i.i.i, align 1
  %ti_size.i.i.i = getelementptr inbounds nuw i8, ptr %call.i5, i64 212
  store i32 0, ptr %ti_size.i.i.i, align 4
  %async_len.i.i.i = getelementptr inbounds nuw i8, ptr %call.i5, i64 448
  store i32 0, ptr %async_len.i.i.i, align 8
  %fifo.i.i.i = getelementptr inbounds nuw i8, ptr %call.i5, i64 224
  tail call void @llvm.memset.p0.i64(ptr noundef nonnull align 8 dereferenceable(32) %rregs.i.i.i, i8 0, i64 32, i1 false)
  tail call void @fifo8_reset(ptr noundef nonnull %fifo.i.i.i) #10
  %cmdfifo.i.i.i = getelementptr inbounds nuw i8, ptr %call.i5, i64 408
  tail call void @fifo8_reset(ptr noundef nonnull %cmdfifo.i.i.i) #10
  %dma.i.i.i = getelementptr inbounds nuw i8, ptr %call.i5, i64 220
  store i32 0, ptr %dma.i.i.i, align 4
  %do_cmd.i.i.i = getelementptr inbounds nuw i8, ptr %call.i5, i64 436
  store i32 0, ptr %do_cmd.i.i.i, align 4
  %dma_cb.i.i.i = getelementptr inbounds nuw i8, ptr %call.i5, i64 488
  store ptr null, ptr %dma_cb.i.i.i, align 8
  %arrayidx.i.i.i = getelementptr i8, ptr %call.i5, i64 168
  store i8 7, ptr %arrayidx.i.i.i, align 8
  br label %sw.epilog

sw.bb2:                                           ; preds = %entry
  tail call void @esp_dma_enable(ptr noundef %call.i5, i32 poison, i32 noundef %level)
  br label %sw.epilog

sw.epilog:                                        ; preds = %if.then.i, %sw.bb, %sw.bb2, %entry
  ret void
}